target datalayout = "e-m:e-p270:32:32-p271:32:32-p272:64:64-i64:64-i128:128-f80:128-n8:16:32:64-S128"
target triple = "x86_64-pc-linux-gnu"

%struct.X86Features = type { [2 x i64], ptr }

@x86_feature_zero = dso_local constant %struct.X86Features zeroinitializer, align 8
@debug_log = external global i8, align 1
@.str.20 = private unnamed_addr constant [10 x i8] c"-- INFO: \00", align 1
@.str.22 = private unnamed_addr constant [2 x i8] c"\0A\00", align 1
@.str.205 = private unnamed_addr constant [41 x i8] c"Detected the following host features: %s\00", align 1
@.str.206 = private unnamed_addr constant [7 x i8] c"For %s\00", align 1
@.str.207 = private unnamed_addr constant [2 x i8] c",\00", align 1
@.str.208 = private unnamed_addr constant [40 x i8] c"WARNING, unknown feature %s - skipping\0A\00", align 1
@.str.209 = private unnamed_addr constant [6 x i8] c"64bit\00", align 1

; Function Attrs: nounwind uwtable
define internal void @x86features_remove_feature(ptr noundef %0, i32 noundef %1) #0 {
  %3 = alloca ptr, align 8
  %4 = alloca i32, align 4
  store ptr %0, ptr %3, align 8
  store i32 %1, ptr %4, align 4
  %5 = load i32, ptr %4, align 4
  %6 = icmp ult i32 %5, 64
  br i1 %6, label %7, label %17

7:                                                ; preds = %2
  %8 = load i32, ptr %4, align 4
  %9 = zext i32 %8 to i64
  %10 = shl i64 1, %9
  %11 = xor i64 %10, -1
  %12 = load ptr, ptr %3, align 8
  %13 = getelementptr inbounds %struct.X86Features, ptr %12, i32 0, i32 0
  %14 = getelementptr inbounds [2 x i64], ptr %13, i64 0, i64 0
  %15 = load i64, ptr %14, align 8
  %16 = and i64 %15, %11
  store i64 %16, ptr %14, align 8
  br label %28

17:                                               ; preds = %2
  %18 = load i32, ptr %4, align 4
  %19 = sub i32 %18, 64
  %20 = zext i32 %19 to i64
  %21 = shl i64 1, %20
  %22 = xor i64 %21, -1
  %23 = load ptr, ptr %3, align 8
  %24 = getelementptr inbounds %struct.X86Features, ptr %23, i32 0, i32 0
  %25 = getelementptr inbounds [2 x i64], ptr %24, i64 0, i64 1
  %26 = load i64, ptr %25, align 8
  %27 = and i64 %26, %22
  store i64 %27, ptr %25, align 8
  br label %28

28:                                               ; preds = %17, %7
  %29 = load ptr, ptr %3, align 8
  %30 = getelementptr inbounds %struct.X86Features, ptr %29, i32 0, i32 1
  store ptr null, ptr %30, align 8
  ret void
}

; Function Attrs: nounwind uwtable
define internal i32 @x86feature_from_string(ptr noundef %0) #0 {
  %2 = alloca i32, align 4
  %3 = alloca ptr, align 8
  %4 = alloca i32, align 4
  %5 = alloca ptr, align 8
  %6 = alloca i32, align 4
  %7 = alloca i8, align 1
  store ptr %0, ptr %3, align 8
  store i32 0, ptr %4, align 4
  br label %8

8:                                                ; preds = %43, %1
  %9 = load i32, ptr %4, align 4
  %10 = icmp sle i32 %9, 103
  br i1 %10, label %11, label %46

11:                                               ; preds = %8
  %12 = load i32, ptr %4, align 4
  %13 = sext i32 %12 to i64
  %14 = getelementptr inbounds [104 x ptr], ptr @x86_feature_name, i64 0, i64 %13
  %15 = load ptr, ptr %14, align 8
  store ptr %15, ptr %5, align 8
  store i32 0, ptr %6, align 4
  br label %16

16:                                               ; preds = %39, %11
  %17 = load ptr, ptr %3, align 8
  %18 = load i32, ptr %6, align 4
  %19 = sext i32 %18 to i64
  %20 = getelementptr inbounds i8, ptr %17, i64 %19
  %21 = load i8, ptr %20, align 1
  store i8 %21, ptr %7, align 1
  %22 = load ptr, ptr %5, align 8
  %23 = load i32, ptr %6, align 4
  %24 = sext i32 %23 to i64
  %25 = getelementptr inbounds i8, ptr %22, i64 %24
  %26 = load i8, ptr %25, align 1
  %27 = sext i8 %26 to i32
  %28 = load i8, ptr %7, align 1
  %29 = sext i8 %28 to i32
  %30 = icmp ne i32 %27, %29
  br i1 %30, label %31, label %32

31:                                               ; preds = %16
  br label %42

32:                                               ; preds = %16
  %33 = load i8, ptr %7, align 1
  %34 = sext i8 %33 to i32
  %35 = icmp eq i32 %34, 0
  br i1 %35, label %36, label %38

36:                                               ; preds = %32
  %37 = load i32, ptr %4, align 4
  store i32 %37, ptr %2, align 4
  br label %47

38:                                               ; preds = %32
  br label %39

39:                                               ; preds = %38
  %40 = load i32, ptr %6, align 4
  %41 = add nsw i32 %40, 1
  store i32 %41, ptr %6, align 4
  br label %16

42:                                               ; preds = %31
  br label %43

43:                                               ; preds = %42
  %44 = load i32, ptr %4, align 4
  %45 = add nsw i32 %44, 1
  store i32 %45, ptr %4, align 4
  br label %8, !llvm.loop !13

46:                                               ; preds = %8
  store i32 -1, ptr %2, align 4
  br label %47

47:                                               ; preds = %46, %36
  %48 = load i32, ptr %2, align 4
  ret i32 %48
}

; Function Attrs: nounwind uwtable
define internal void @x86_features_from_host(ptr noundef %0) #0 {
  %2 = alloca ptr, align 8
  %3 = alloca ptr, align 8
  %4 = alloca ptr, align 8
  %5 = alloca i32, align 4
  %6 = alloca i32, align 4
  store ptr %0, ptr %2, align 8
  %7 = call ptr @LLVMGetHostCPUFeatures()
  store ptr %7, ptr %3, align 8
  br label %8

8:                                                ; preds = %1
  %9 = load i8, ptr @debug_log, align 1
  %10 = trunc i8 %9 to i1
  br i1 %10, label %12, label %11

11:                                               ; preds = %8
  br label %17

12:                                               ; preds = %8
  %13 = call i32 (ptr, ...) @printf(ptr noundef @.str.20)
  %14 = load ptr, ptr %3, align 8
  %15 = call i32 (ptr, ...) @printf(ptr noundef @.str.205, ptr noundef %14)
  %16 = call i32 (ptr, ...) @printf(ptr noundef @.str.22)
  br label %17

17:                                               ; preds = %12, %11
  br label %18

18:                                               ; preds = %17
  %19 = load i8, ptr @debug_log, align 1
  %20 = trunc i8 %19 to i1
  br i1 %20, label %22, label %21

21:                                               ; preds = %18
  br label %27

22:                                               ; preds = %18
  %23 = call i32 (ptr, ...) @printf(ptr noundef @.str.20)
  %24 = call ptr @LLVMGetHostCPUName()
  %25 = call i32 (ptr, ...) @printf(ptr noundef @.str.206, ptr noundef %24)
  %26 = call i32 (ptr, ...) @printf(ptr noundef @.str.22)
  br label %27

27:                                               ; preds = %22, %21
  %28 = load ptr, ptr %3, align 8
  %29 = call ptr @strtok(ptr noundef %28, ptr noundef @.str.207) #8
  store ptr %29, ptr %4, align 8
  %30 = load ptr, ptr %2, align 8
  call void @llvm.memcpy.p0.p0.i64(ptr align 8 %30, ptr align 8 @x86_feature_zero, i64 24, i1 false)
  br label %31

31:                                               ; preds = %85, %27
  %32 = load ptr, ptr %4, align 8
  %33 = icmp ne ptr %32, null
  br i1 %33, label %34, label %87

34:                                               ; preds = %31
  %35 = load ptr, ptr %4, align 8
  %36 = getelementptr inbounds i8, ptr %35, i64 0
  %37 = load i8, ptr %36, align 1
  %38 = sext i8 %37 to i32
  %39 = icmp eq i32 %38, 45
  br i1 %39, label %40, label %53

40:                                               ; preds = %34
  %41 = load ptr, ptr %4, align 8
  %42 = getelementptr inbounds i8, ptr %41, i64 1
  %43 = call i32 @x86feature_from_string(ptr noundef %42)
  store i32 %43, ptr %5, align 4
  %44 = load i32, ptr %5, align 4
  %45 = icmp slt i32 %44, 0
  br i1 %45, label %46, label %50

46:                                               ; preds = %40
  %47 = load ptr, ptr %4, align 8
  %48 = getelementptr inbounds i8, ptr %47, i64 1
  %49 = call i32 (ptr, ...) @printf(ptr noundef @.str.208, ptr noundef %48)
  br label %85

50:                                               ; preds = %40
  %51 = load ptr, ptr %2, align 8
  %52 = load i32, ptr %5, align 4
  call void @x86features_remove_feature(ptr noundef %51, i32 noundef %52)
  br label %84

53:                                               ; preds = %34
  %54 = load ptr, ptr %4, align 8
  %55 = getelementptr inbounds i8, ptr %54, i64 0
  %56 = load i8, ptr %55, align 1
  %57 = sext i8 %56 to i32
  %58 = icmp eq i32 %57, 43
  br i1 %58, label %59, label %83

59:                                               ; preds = %53
  %60 = load ptr, ptr %4, align 8
  %61 = getelementptr inbounds i8, ptr %60, i64 1
  %62 = call i32 @x86feature_from_string(ptr noundef %61)
  store i32 %62, ptr %6, align 4
  %63 = load i32, ptr %6, align 4
  %64 = icmp slt i32 %63, 0
  br i1 %64, label %65, label %80

65:                                               ; preds = %59
  %66 = load ptr, ptr %4, align 8
  %67 = getelementptr inbounds i8, ptr %66, i64 1
  %68 = call i64 @strlen(ptr noundef %67) #9
  %69 = icmp eq i64 %68, 5
  br i1 %69, label %70, label %76

70:                                               ; preds = %65
  %71 = load ptr, ptr %4, align 8
  %72 = getelementptr inbounds i8, ptr %71, i64 1
  %73 = call i32 @memcmp(ptr noundef %72, ptr noundef @.str.209, i64 noundef 5) #9
  %74 = icmp eq i32 %73, 0
  br i1 %74, label %75, label %76

75:                                               ; preds = %70
  br label %85

76:                                               ; preds = %70, %65
  %77 = load ptr, ptr %4, align 8
  %78 = getelementptr inbounds i8, ptr %77, i64 1
  %79 = call i32 (ptr, ...) @printf(ptr noundef @.str.208, ptr noundef %78)
  br label %85

80:                                               ; preds = %59
  %81 = load ptr, ptr %2, align 8
  %82 = load i32, ptr %6, align 4
  call void @x86_features_add_feature(ptr noundef %81, i32 noundef %82)
  br label %83

83:                                               ; preds = %80, %53
  br label %84

84:                                               ; preds = %83, %50
  br label %85

85:                                               ; preds = %84, %76, %75, %46
  %86 = call ptr @strtok(ptr noundef null, ptr noundef @.str.207) #8
  store ptr %86, ptr %4, align 8
  br label %31, !llvm.loop !12

87:                                               ; preds = %31
  %88 = load ptr, ptr %3, align 8
  call void @LLVMDisposeMessage(ptr noundef %88)
  ret void
}